; Function Attrs: mustprogress uwtable
define internal noundef i64 @_ZN3nixL13callback_readEP7archivePvPPKv(ptr noundef %0, ptr nocapture noundef readonly %1, ptr nocapture noundef writeonly %2) #4 personality ptr @__gxx_personality_v0 {
  %4 = getelementptr inbounds i8, ptr %1, i64 16
  %5 = load ptr, ptr %4, align 8
  store ptr %5, ptr %2, align 8
  %6 = getelementptr inbounds i8, ptr %1, i64 8
  %7 = load ptr, ptr %6, align 8
  %8 = getelementptr inbounds i8, ptr %1, i64 24
  %9 = load ptr, ptr %8, align 8
  %10 = ptrtoint ptr %9 to i64
  %11 = ptrtoint ptr %5 to i64
  %12 = sub i64 %10, %11
  %13 = load ptr, ptr %7, align 8
  %14 = getelementptr inbounds i8, ptr %13, i64 16
  %15 = load ptr, ptr %14, align 8
  %16 = invoke noundef i64 %15(ptr noundef nonnull align 8 dereferenceable(8) %7, ptr noundef %5, i64 noundef %12)
          to label %36 unwind label %17

17:                                               ; preds = %3
  %18 = landingpad { ptr, i32 }
          catch ptr @_ZTIN3nix9EndOfFileE
          catch ptr @_ZTISt9exception
  %19 = extractvalue { ptr, i32 } %18, 0
  %20 = extractvalue { ptr, i32 } %18, 1
  %21 = tail call i32 @llvm.eh.typeid.for(ptr nonnull @_ZTIN3nix9EndOfFileE) #22
  %22 = icmp eq i32 %20, %21
  br i1 %22, label %23, label %25

23:                                               ; preds = %17
  %24 = tail call ptr @__cxa_begin_catch(ptr %19) #22
  br label %.sink.split

25:                                               ; preds = %17
  %26 = tail call i32 @llvm.eh.typeid.for(ptr nonnull @_ZTISt9exception) #22
  %27 = icmp eq i32 %20, %26
  br i1 %27, label %28, label %37

28:                                               ; preds = %25
  %29 = tail call ptr @__cxa_begin_catch(ptr %19) #22
  %30 = load ptr, ptr %29, align 8
  %31 = getelementptr inbounds i8, ptr %30, i64 16
  %32 = load ptr, ptr %31, align 8
  %33 = tail call noundef ptr %32(ptr noundef nonnull align 8 dereferenceable(8) %29) #22
  invoke void (ptr, i32, ptr, ...) @archive_set_error(ptr noundef %0, i32 noundef 5, ptr noundef nonnull @.str.27, ptr noundef %33)
          to label %.sink.split unwind label %34

34:                                               ; preds = %28
  %35 = landingpad { ptr, i32 }
          cleanup
  invoke void @__cxa_end_catch()
          to label %37 unwind label %38

.sink.split:                                      ; preds = %28, %23
  %.0.ph = phi i64 [ 0, %23 ], [ -1, %28 ]
  tail call void @__cxa_end_catch()
  br label %36

36:                                               ; preds = %.sink.split, %3
  %.0 = phi i64 [ %16, %3 ], [ %.0.ph, %.sink.split ]
  ret i64 %.0

37:                                               ; preds = %34, %25
  %.merged = phi { ptr, i32 } [ %35, %34 ], [ %18, %25 ]
  resume { ptr, i32 } %.merged

38:                                               ; preds = %34
  %39 = landingpad { ptr, i32 }
          catch ptr null
  %40 = extractvalue { ptr, i32 } %39, 0
  tail call void @__clang_call_terminate(ptr %40) #26
  unreachable
}